target datalayout = "e-m:e-p270:32:32-p271:32:32-p272:64:64-i64:64-i128:128-f80:128-n8:16:32:64-S128"
target triple = "x86_64-pc-linux-gnu"

%struct._object = type { i64, ptr }
%"class.pybind11::object" = type { %"class.pybind11::handle" }
%"class.pybind11::handle" = type { ptr }
%"class.pybind11::dtype" = type { %"class.pybind11::object" }
%"class.pybind11::list" = type { %"class.pybind11::object" }
%"class.std::vector.39" = type { %"struct.std::_Vector_base.40" }
%"struct.std::_Vector_base.40" = type { %"struct.std::_Vector_base<const char *, std::allocator<const char *>>::_Vector_impl" }
%"struct.std::_Vector_base<const char *, std::allocator<const char *>>::_Vector_impl" = type { %"struct.std::_Vector_base<const char *, std::allocator<const char *>>::_Vector_impl_data" }
%"struct.std::_Vector_base<const char *, std::allocator<const char *>>::_Vector_impl_data" = type { ptr, ptr, ptr }
%class.anon.47 = type { %"class.std::vector.39" }
%"class.__gnu_cxx::__normal_iterator.710" = type { ptr }
%"struct.pybind11::detail::void_type" = type { i8 }
%"struct.pybind11::detail::PyArrayDescr_Proxy" = type { %struct._object, ptr, i8, i8, i8, i8, i32, i32, i32, ptr, ptr, ptr }

@.str.235 = private unnamed_addr constant [32 x i8] c"Could not allocate list object!\00", align 1

; Function Attrs: mustprogress nounwind uwtable
define linkonce_odr hidden noundef ptr @_ZN8pybind116detail22array_descriptor_proxyEP7_object(ptr noundef %0) #0 comdat {
  %2 = alloca ptr, align 8
  store ptr %0, ptr %2, align 8
  %3 = load ptr, ptr %2, align 8
  ret ptr %3
}

; Function Attrs: mustprogress nounwind uwtable
define linkonce_odr noundef nonnull align 8 dereferenceable(8) ptr @_ZNK9__gnu_cxx17__normal_iteratorIPKPKcSt6vectorIS2_SaIS2_EEE4baseEv(ptr noundef nonnull align 8 dereferenceable(8) %0) #0 comdat align 2 {
  %2 = alloca ptr, align 8
  store ptr %0, ptr %2, align 8
  %3 = load ptr, ptr %2, align 8
  %4 = getelementptr inbounds %"class.__gnu_cxx::__normal_iterator.710", ptr %3, i32 0, i32 0
  ret ptr %4
}

; Function Attrs: mustprogress nounwind uwtable
define linkonce_odr void @_ZN9__gnu_cxx17__normal_iteratorIPKPKcSt6vectorIS2_SaIS2_EEEC2ERKS4_(ptr noundef nonnull align 8 dereferenceable(8) %0, ptr noundef nonnull align 8 dereferenceable(8) %1) unnamed_addr #0 comdat align 2 {
  %3 = alloca ptr, align 8
  %4 = alloca ptr, align 8
  store ptr %0, ptr %3, align 8
  store ptr %1, ptr %4, align 8
  %5 = load ptr, ptr %3, align 8
  %6 = getelementptr inbounds %"class.__gnu_cxx::__normal_iterator.710", ptr %5, i32 0, i32 0
  %7 = load ptr, ptr %4, align 8
  %8 = load ptr, ptr %7, align 8
  store ptr %8, ptr %6, align 8
  ret void
}

; Function Attrs: mustprogress nounwind uwtable
define linkonce_odr hidden void @_ZN8pybind116objectC2ENS_6handleENS0_8stolen_tE(ptr noundef nonnull align 8 dereferenceable(8) %0, ptr %1) unnamed_addr #0 comdat align 2 {
  %3 = alloca %"class.pybind11::handle", align 8
  %4 = alloca ptr, align 8
  %5 = getelementptr inbounds %"class.pybind11::handle", ptr %3, i32 0, i32 0
  store ptr %1, ptr %5, align 8
  store ptr %0, ptr %4, align 8
  %6 = load ptr, ptr %4, align 8
  call void @llvm.memcpy.p0.p0.i64(ptr align 8 %6, ptr align 8 %3, i64 8, i1 false)
  ret void
}

; Function Attrs: mustprogress nounwind uwtable
define linkonce_odr hidden void @_ZN8pybind116handleC2IP7_objectTnNSt9enable_ifIXsr6detail25is_pyobj_ptr_or_nullptr_tIT_EE5valueEiE4typeELi0EEES5_(ptr noundef nonnull align 8 dereferenceable(8) %0, ptr noundef %1) unnamed_addr #0 comdat align 2 {
  %3 = alloca ptr, align 8
  %4 = alloca ptr, align 8
  store ptr %0, ptr %3, align 8
  store ptr %1, ptr %4, align 8
  %5 = load ptr, ptr %3, align 8
  %6 = getelementptr inbounds %"class.pybind11::handle", ptr %5, i32 0, i32 0
  %7 = load ptr, ptr %4, align 8
  store ptr %7, ptr %6, align 8
  ret void
}

; Function Attrs: mustprogress nounwind uwtable
define linkonce_odr hidden noundef i64 @_ZN8pybind1112ssize_t_castIlEElRKT_(ptr noundef nonnull align 8 dereferenceable(8) %0) #0 comdat {
  %2 = alloca ptr, align 8
  store ptr %0, ptr %2, align 8
  %3 = load ptr, ptr %2, align 8
  %4 = load i64, ptr %3, align 8
  ret i64 %4
}

; Function Attrs: mustprogress nounwind uwtable
define linkonce_odr noundef nonnull align 8 dereferenceable(8) ptr @_ZN9__gnu_cxx17__normal_iteratorIPKPKcSt6vectorIS2_SaIS2_EEEppEv(ptr noundef nonnull align 8 dereferenceable(8) %0) #0 comdat align 2 {
  %2 = alloca ptr, align 8
  store ptr %0, ptr %2, align 8
  %3 = load ptr, ptr %2, align 8
  %4 = getelementptr inbounds %"class.__gnu_cxx::__normal_iterator.710", ptr %3, i32 0, i32 0
  %5 = load ptr, ptr %4, align 8
  %6 = getelementptr inbounds ptr, ptr %5, i32 1
  store ptr %6, ptr %4, align 8
  ret ptr %3
}

; Function Attrs: mustprogress nounwind uwtable
define linkonce_odr hidden noundef signext i8 @_ZNK8pybind115dtype4kindEv(ptr noundef nonnull align 8 dereferenceable(8) %0) #0 comdat align 2 {
  %2 = alloca ptr, align 8
  store ptr %0, ptr %2, align 8
  %3 = load ptr, ptr %2, align 8
  %4 = getelementptr inbounds %"class.pybind11::handle", ptr %3, i32 0, i32 0
  %5 = load ptr, ptr %4, align 8
  %6 = call noundef ptr @_ZN8pybind116detail22array_descriptor_proxyEP7_object(ptr noundef %5)
  %7 = getelementptr inbounds %"struct.pybind11::detail::PyArrayDescr_Proxy", ptr %6, i32 0, i32 2
  %8 = load i8, ptr %7, align 8
  ret i8 %8
}

; Function Attrs: mustprogress nounwind uwtable
define linkonce_odr noundef nonnull align 8 dereferenceable(8) ptr @_ZNK9__gnu_cxx17__normal_iteratorIPKPKcSt6vectorIS2_SaIS2_EEEdeEv(ptr noundef nonnull align 8 dereferenceable(8) %0) #0 comdat align 2 {
  %2 = alloca ptr, align 8
  store ptr %0, ptr %2, align 8
  %3 = load ptr, ptr %2, align 8
  %4 = getelementptr inbounds %"class.__gnu_cxx::__normal_iterator.710", ptr %3, i32 0, i32 0
  %5 = load ptr, ptr %4, align 8
  ret ptr %5
}

; Function Attrs: mustprogress nounwind uwtable
define linkonce_odr noundef zeroext i1 @_ZN9__gnu_cxxneIPKPKcSt6vectorIS2_SaIS2_EEEEbRKNS_17__normal_iteratorIT_T0_EESD_(ptr noundef nonnull align 8 dereferenceable(8) %0, ptr noundef nonnull align 8 dereferenceable(8) %1) #0 comdat {
  %3 = alloca ptr, align 8
  %4 = alloca ptr, align 8
  store ptr %0, ptr %3, align 8
  store ptr %1, ptr %4, align 8
  %5 = load ptr, ptr %3, align 8
  %6 = call noundef nonnull align 8 dereferenceable(8) ptr @_ZNK9__gnu_cxx17__normal_iteratorIPKPKcSt6vectorIS2_SaIS2_EEE4baseEv(ptr noundef nonnull align 8 dereferenceable(8) %5) #16
  %7 = load ptr, ptr %6, align 8
  %8 = load ptr, ptr %4, align 8
  %9 = call noundef nonnull align 8 dereferenceable(8) ptr @_ZNK9__gnu_cxx17__normal_iteratorIPKPKcSt6vectorIS2_SaIS2_EEE4baseEv(ptr noundef nonnull align 8 dereferenceable(8) %8) #16
  %10 = load ptr, ptr %9, align 8
  %11 = icmp ne ptr %7, %10
  ret i1 %11
}

; Function Attrs: mustprogress nounwind uwtable
define linkonce_odr ptr @_ZNKSt6vectorIPKcSaIS1_EE3endEv(ptr noundef nonnull align 8 dereferenceable(24) %0) #0 comdat align 2 {
  %2 = alloca %"class.__gnu_cxx::__normal_iterator.710", align 8
  %3 = alloca ptr, align 8
  store ptr %0, ptr %3, align 8
  %4 = load ptr, ptr %3, align 8
  %5 = getelementptr inbounds %"struct.std::_Vector_base.40", ptr %4, i32 0, i32 0
  %6 = getelementptr inbounds %"struct.std::_Vector_base<const char *, std::allocator<const char *>>::_Vector_impl_data", ptr %5, i32 0, i32 1
  call void @_ZN9__gnu_cxx17__normal_iteratorIPKPKcSt6vectorIS2_SaIS2_EEEC2ERKS4_(ptr noundef nonnull align 8 dereferenceable(8) %2, ptr noundef nonnull align 8 dereferenceable(8) %6) #16
  %7 = getelementptr inbounds %"class.__gnu_cxx::__normal_iterator.710", ptr %2, i32 0, i32 0
  %8 = load ptr, ptr %7, align 8
  ret ptr %8
}

; Function Attrs: mustprogress nounwind uwtable
define linkonce_odr ptr @_ZNKSt6vectorIPKcSaIS1_EE5beginEv(ptr noundef nonnull align 8 dereferenceable(24) %0) #0 comdat align 2 {
  %2 = alloca %"class.__gnu_cxx::__normal_iterator.710", align 8
  %3 = alloca ptr, align 8
  store ptr %0, ptr %3, align 8
  %4 = load ptr, ptr %3, align 8
  %5 = getelementptr inbounds %"struct.std::_Vector_base.40", ptr %4, i32 0, i32 0
  %6 = getelementptr inbounds %"struct.std::_Vector_base<const char *, std::allocator<const char *>>::_Vector_impl_data", ptr %5, i32 0, i32 0
  call void @_ZN9__gnu_cxx17__normal_iteratorIPKPKcSt6vectorIS2_SaIS2_EEEC2ERKS4_(ptr noundef nonnull align 8 dereferenceable(8) %2, ptr noundef nonnull align 8 dereferenceable(8) %6) #16
  %7 = getelementptr inbounds %"class.__gnu_cxx::__normal_iterator.710", ptr %2, i32 0, i32 0
  %8 = load ptr, ptr %7, align 8
  ret ptr %8
}

; Function Attrs: mustprogress uwtable
define linkonce_odr hidden void @_ZN8pybind114listC2IlTnNSt9enable_ifIXsr3std11is_integralIT_EE5valueEiE4typeELi0EEES3_(ptr noundef nonnull align 8 dereferenceable(8) %0, i64 noundef %1) unnamed_addr #1 comdat align 2 personality ptr @__gxx_personality_v0 {
  %3 = alloca ptr, align 8
  %4 = alloca i64, align 8
  %5 = alloca %"class.pybind11::handle", align 8
  %6 = alloca ptr, align 8
  %7 = alloca i32, align 4
  store ptr %0, ptr %3, align 8
  store i64 %1, ptr %4, align 8
  %8 = load ptr, ptr %3, align 8
  %9 = call noundef i64 @_ZN8pybind1112ssize_t_castIlEElRKT_(ptr noundef nonnull align 8 dereferenceable(8) %4)
  %10 = call ptr @PyList_New(i64 noundef %9)
  call void @_ZN8pybind116handleC2IP7_objectTnNSt9enable_ifIXsr6detail25is_pyobj_ptr_or_nullptr_tIT_EE5valueEiE4typeELi0EEES5_(ptr noundef nonnull align 8 dereferenceable(8) %5, ptr noundef %10)
  %11 = getelementptr inbounds %"class.pybind11::handle", ptr %5, i32 0, i32 0
  %12 = load ptr, ptr %11, align 8
  call void @_ZN8pybind116objectC2ENS_6handleENS0_8stolen_tE(ptr noundef nonnull align 8 dereferenceable(8) %8, ptr %12)
  %13 = getelementptr inbounds %"class.pybind11::handle", ptr %8, i32 0, i32 0
  %14 = load ptr, ptr %13, align 8
  %15 = icmp ne ptr %14, null
  br i1 %15, label %22, label %16

16:                                               ; preds = %2
  invoke void @_ZN8pybind1113pybind11_failEPKc(ptr noundef @.str.235) #22
          to label %17 unwind label %18

17:                                               ; preds = %16
  unreachable

18:                                               ; preds = %16
  %19 = landingpad { ptr, i32 }
          cleanup
  %20 = extractvalue { ptr, i32 } %19, 0
  store ptr %20, ptr %6, align 8
  %21 = extractvalue { ptr, i32 } %19, 1
  store i32 %21, ptr %7, align 4
  call void @_ZN8pybind116objectD2Ev(ptr noundef nonnull align 8 dereferenceable(8) %8) #16
  br label %23

22:                                               ; preds = %2
  ret void

23:                                               ; preds = %18
  %24 = load ptr, ptr %6, align 8
  %25 = load i32, ptr %7, align 4
  %26 = insertvalue { ptr, i32 } poison, ptr %24, 0
  %27 = insertvalue { ptr, i32 } %26, i32 %25, 1
  resume { ptr, i32 } %27
}

; Function Attrs: mustprogress uwtable
define internal void @"_ZZ27test_submodule_numpy_dtypesRN8pybind117module_EENK4$_10clEv"(ptr dead_on_unwind noalias writable sret(%"class.pybind11::list") align 8 %0, ptr noundef nonnull align 8 dereferenceable(24) %1) #1 align 2 personality ptr @__gxx_personality_v0 {
  %3 = alloca ptr, align 8
  %4 = alloca ptr, align 8
  %5 = alloca i1, align 1
  %6 = alloca ptr, align 8
  %7 = alloca %"class.__gnu_cxx::__normal_iterator.710", align 8
  %8 = alloca %"class.__gnu_cxx::__normal_iterator.710", align 8
  %9 = alloca ptr, align 8
  %10 = alloca i8, align 1
  %11 = alloca %"class.pybind11::dtype", align 8
  %12 = alloca ptr, align 8
  %13 = alloca i32, align 4
  store ptr %0, ptr %3, align 8
  store ptr %1, ptr %4, align 8
  %14 = load ptr, ptr %4, align 8
  store i1 false, ptr %5, align 1
  call void @_ZN8pybind114listC2IlTnNSt9enable_ifIXsr3std11is_integralIT_EE5valueEiE4typeELi0EEES3_(ptr noundef nonnull align 8 dereferenceable(8) %0, i64 noundef 0)
  %15 = getelementptr inbounds %class.anon.47, ptr %14, i32 0, i32 0
  store ptr %15, ptr %6, align 8
  %16 = load ptr, ptr %6, align 8
  %17 = call ptr @_ZNKSt6vectorIPKcSaIS1_EE5beginEv(ptr noundef nonnull align 8 dereferenceable(24) %16) #16
  %18 = getelementptr inbounds %"class.__gnu_cxx::__normal_iterator.710", ptr %7, i32 0, i32 0
  store ptr %17, ptr %18, align 8
  %19 = load ptr, ptr %6, align 8
  %20 = call ptr @_ZNKSt6vectorIPKcSaIS1_EE3endEv(ptr noundef nonnull align 8 dereferenceable(24) %19) #16
  %21 = getelementptr inbounds %"class.__gnu_cxx::__normal_iterator.710", ptr %8, i32 0, i32 0
  store ptr %20, ptr %21, align 8
  br label %22

22:                                               ; preds = %31, %2
  %23 = call noundef zeroext i1 @_ZN9__gnu_cxxneIPKPKcSt6vectorIS2_SaIS2_EEEEbRKNS_17__normal_iteratorIT_T0_EESD_(ptr noundef nonnull align 8 dereferenceable(8) %7, ptr noundef nonnull align 8 dereferenceable(8) %8) #16
  br i1 %23, label %24, label %41

24:                                               ; preds = %22
  %25 = call noundef nonnull align 8 dereferenceable(8) ptr @_ZNK9__gnu_cxx17__normal_iteratorIPKPKcSt6vectorIS2_SaIS2_EEEdeEv(ptr noundef nonnull align 8 dereferenceable(8) %7) #16
  store ptr %25, ptr %9, align 8
  %26 = load ptr, ptr %9, align 8
  %27 = load ptr, ptr %26, align 8
  invoke void @_ZN8pybind115dtypeC2EPKc(ptr noundef nonnull align 8 dereferenceable(8) %11, ptr noundef %27)
          to label %28 unwind label %33

28:                                               ; preds = %24
  %29 = call noundef signext i8 @_ZNK8pybind115dtype4kindEv(ptr noundef nonnull align 8 dereferenceable(8) %11)
  store i8 %29, ptr %10, align 1
  invoke void @_ZN8pybind114list6appendIcEEvOT_(ptr noundef nonnull align 8 dereferenceable(8) %0, ptr noundef nonnull align 1 dereferenceable(1) %10)
          to label %30 unwind label %37

30:                                               ; preds = %28
  call void @_ZN8pybind115dtypeD2Ev(ptr noundef nonnull align 8 dereferenceable(8) %11) #16
  br label %31

31:                                               ; preds = %30
  %32 = call noundef nonnull align 8 dereferenceable(8) ptr @_ZN9__gnu_cxx17__normal_iteratorIPKPKcSt6vectorIS2_SaIS2_EEEppEv(ptr noundef nonnull align 8 dereferenceable(8) %7) #16
  br label %22

33:                                               ; preds = %24
  %34 = landingpad { ptr, i32 }
          cleanup
  %35 = extractvalue { ptr, i32 } %34, 0
  store ptr %35, ptr %12, align 8
  %36 = extractvalue { ptr, i32 } %34, 1
  store i32 %36, ptr %13, align 4
  br label %45

37:                                               ; preds = %28
  %38 = landingpad { ptr, i32 }
          cleanup
  %39 = extractvalue { ptr, i32 } %38, 0
  store ptr %39, ptr %12, align 8
  %40 = extractvalue { ptr, i32 } %38, 1
  store i32 %40, ptr %13, align 4
  call void @_ZN8pybind115dtypeD2Ev(ptr noundef nonnull align 8 dereferenceable(8) %11) #16
  br label %45

41:                                               ; preds = %22
  store i1 true, ptr %5, align 1
  %42 = load i1, ptr %5, align 1
  br i1 %42, label %44, label %43

43:                                               ; preds = %41
  call void @_ZN8pybind114listD2Ev(ptr noundef nonnull align 8 dereferenceable(8) %0) #16
  br label %44

44:                                               ; preds = %43, %41
  ret void

45:                                               ; preds = %37, %33
  call void @_ZN8pybind114listD2Ev(ptr noundef nonnull align 8 dereferenceable(8) %0) #16
  br label %46

46:                                               ; preds = %45
  %47 = load ptr, ptr %12, align 8
  %48 = load i32, ptr %13, align 4
  %49 = insertvalue { ptr, i32 } poison, ptr %47, 0
  %50 = insertvalue { ptr, i32 } %49, i32 %48, 1
  resume { ptr, i32 } %50
}

; Function Attrs: mustprogress uwtable
define internal void @"_ZNO8pybind116detail15argument_loaderIJEE9call_implINS_4listERZ27test_submodule_numpy_dtypesRNS_7module_EE4$_10TpTnmJENS0_9void_typeEEET_OT0_St16integer_sequenceImJXspT1_EEEOT2_"(ptr dead_on_unwind noalias writable sret(%"class.pybind11::list") align 8 %0, ptr noundef nonnull align 1 dereferenceable(1) %1, ptr noundef nonnull align 8 dereferenceable(24) %2, ptr noundef nonnull align 1 dereferenceable(1) %3) #1 align 2 {
  %5 = alloca ptr, align 8
  %6 = alloca ptr, align 8
  %7 = alloca ptr, align 8
  %8 = alloca ptr, align 8
  store ptr %0, ptr %5, align 8
  store ptr %1, ptr %6, align 8
  store ptr %2, ptr %7, align 8
  store ptr %3, ptr %8, align 8
  %9 = load ptr, ptr %7, align 8
  call void @"_ZZ27test_submodule_numpy_dtypesRN8pybind117module_EENK4$_10clEv"(ptr dead_on_unwind writable sret(%"class.pybind11::list") align 8 %0, ptr noundef nonnull align 8 dereferenceable(24) %9)
  ret void
}

; Function Attrs: mustprogress uwtable
define internal void @"_ZNO8pybind116detail15argument_loaderIJEE4callINS_4listENS0_9void_typeERZ27test_submodule_numpy_dtypesRNS_7module_EE4$_10EENSt9enable_ifIXntsr3std7is_voidIT_EE5valueESB_E4typeEOT1_"(ptr dead_on_unwind noalias writable sret(%"class.pybind11::list") align 8 %0, ptr noundef nonnull align 1 dereferenceable(1) %1, ptr noundef nonnull align 8 dereferenceable(24) %2) #1 align 2 {
  %4 = alloca ptr, align 8
  %5 = alloca ptr, align 8
  %6 = alloca ptr, align 8
  %7 = alloca %"struct.pybind11::detail::void_type", align 1
  store ptr %0, ptr %4, align 8
  store ptr %1, ptr %5, align 8
  store ptr %2, ptr %6, align 8
  %8 = load ptr, ptr %5, align 8
  %9 = load ptr, ptr %6, align 8
  call void @"_ZNO8pybind116detail15argument_loaderIJEE9call_implINS_4listERZ27test_submodule_numpy_dtypesRNS_7module_EE4$_10TpTnmJENS0_9void_typeEEET_OT0_St16integer_sequenceImJXspT1_EEEOT2_"(ptr dead_on_unwind writable sret(%"class.pybind11::list") align 8 %0, ptr noundef nonnull align 1 dereferenceable(1) %8, ptr noundef nonnull align 8 dereferenceable(24) %9, ptr noundef nonnull align 1 dereferenceable(1) %7)
  ret void
}